target datalayout = "e-m:e-p270:32:32-p271:32:32-p272:64:64-i64:64-i128:128-f80:128-n8:16:32:64-S128"
target triple = "x86_64-pc-linux-gnu"

%struct._zend_refcounted_h = type { i32, %union.anon.3 }
%union.anon.3 = type { i32 }
%struct.smart_str = type { ptr, i64 }
%struct._zend_string = type { %struct._zend_refcounted_h, i64, i64, [1 x i8] }

@.str.83 = private unnamed_addr constant [3 x i8] c"i:\00", align 1

; Function Attrs: nounwind uwtable
define internal void @php_var_serialize_long(ptr noundef %0, i64 noundef %1) #0 {
  %3 = alloca ptr, align 8
  %4 = alloca i64, align 8
  %5 = alloca i8, align 1
  %6 = alloca ptr, align 8
  %7 = alloca i64, align 8
  %8 = alloca i8, align 1
  %9 = alloca i64, align 8
  %10 = alloca ptr, align 8
  %11 = alloca ptr, align 8
  %12 = alloca ptr, align 8
  %13 = alloca i64, align 8
  %14 = alloca ptr, align 8
  %15 = alloca i64, align 8
  %16 = alloca ptr, align 8
  %17 = alloca i64, align 8
  %18 = alloca ptr, align 8
  %19 = alloca i64, align 8
  %20 = alloca ptr, align 8
  %21 = alloca ptr, align 8
  %22 = alloca i64, align 8
  %23 = alloca ptr, align 8
  %24 = alloca ptr, align 8
  %25 = alloca i64, align 8
  %26 = alloca [32 x i8], align 16
  %27 = alloca ptr, align 8
  %28 = alloca i64, align 8
  %29 = alloca ptr, align 8
  store ptr %0, ptr %24, align 8
  store i64 %1, ptr %25, align 8
  %30 = getelementptr inbounds [32 x i8], ptr %26, i64 0, i64 0
  %31 = getelementptr inbounds i8, ptr %30, i64 32
  %32 = getelementptr inbounds i8, ptr %31, i64 -1
  %33 = load i64, ptr %25, align 8
  store ptr %32, ptr %21, align 8
  store i64 %33, ptr %22, align 8
  %34 = load i64, ptr %22, align 8
  %35 = icmp slt i64 %34, 0
  br i1 %35, label %36, label %60

36:                                               ; preds = %2
  %37 = load ptr, ptr %21, align 8
  %38 = load i64, ptr %22, align 8
  %39 = xor i64 %38, -1
  %40 = add i64 %39, 1
  store ptr %37, ptr %18, align 8
  store i64 %40, ptr %19, align 8
  %41 = load ptr, ptr %18, align 8
  store i8 0, ptr %41, align 1
  br label %42

42:                                               ; preds = %42, %36
  %43 = load i64, ptr %19, align 8
  %44 = urem i64 %43, 10
  %45 = trunc i64 %44 to i8
  %46 = sext i8 %45 to i32
  %47 = add nsw i32 %46, 48
  %48 = trunc i32 %47 to i8
  %49 = load ptr, ptr %18, align 8
  %50 = getelementptr inbounds i8, ptr %49, i32 -1
  store ptr %50, ptr %18, align 8
  store i8 %48, ptr %50, align 1
  %51 = load i64, ptr %19, align 8
  %52 = udiv i64 %51, 10
  store i64 %52, ptr %19, align 8
  %53 = load i64, ptr %19, align 8
  %54 = icmp ugt i64 %53, 0
  br i1 %54, label %42, label %55

55:                                               ; preds = %42
  %56 = load ptr, ptr %18, align 8
  store ptr %56, ptr %23, align 8
  %57 = load ptr, ptr %23, align 8
  %58 = getelementptr inbounds i8, ptr %57, i32 -1
  store ptr %58, ptr %23, align 8
  store i8 45, ptr %58, align 1
  %59 = load ptr, ptr %23, align 8
  store ptr %59, ptr %20, align 8
  br label %79

60:                                               ; preds = %2
  %61 = load ptr, ptr %21, align 8
  %62 = load i64, ptr %22, align 8
  store ptr %61, ptr %16, align 8
  store i64 %62, ptr %17, align 8
  %63 = load ptr, ptr %16, align 8
  store i8 0, ptr %63, align 1
  br label %64

64:                                               ; preds = %64, %60
  %65 = load i64, ptr %17, align 8
  %66 = urem i64 %65, 10
  %67 = trunc i64 %66 to i8
  %68 = sext i8 %67 to i32
  %69 = add nsw i32 %68, 48
  %70 = trunc i32 %69 to i8
  %71 = load ptr, ptr %16, align 8
  %72 = getelementptr inbounds i8, ptr %71, i32 -1
  store ptr %72, ptr %16, align 8
  store i8 %70, ptr %72, align 1
  %73 = load i64, ptr %17, align 8
  %74 = udiv i64 %73, 10
  store i64 %74, ptr %17, align 8
  %75 = load i64, ptr %17, align 8
  %76 = icmp ugt i64 %75, 0
  br i1 %76, label %64, label %77

77:                                               ; preds = %64
  %78 = load ptr, ptr %16, align 8
  store ptr %78, ptr %20, align 8
  br label %79

79:                                               ; preds = %77, %55
  %80 = load ptr, ptr %20, align 8
  store ptr %80, ptr %27, align 8
  %81 = getelementptr inbounds [32 x i8], ptr %26, i64 0, i64 0
  %82 = getelementptr inbounds i8, ptr %81, i64 32
  %83 = getelementptr inbounds i8, ptr %82, i64 -1
  %84 = load ptr, ptr %27, align 8
  %85 = ptrtoint ptr %83 to i64
  %86 = ptrtoint ptr %84 to i64
  %87 = sub i64 %85, %86
  store i64 %87, ptr %28, align 8
  %88 = load ptr, ptr %24, align 8
  %89 = load i64, ptr %28, align 8
  %90 = add i64 2, %89
  %91 = add i64 %90, 1
  store ptr %88, ptr %14, align 8
  store i64 %91, ptr %15, align 8
  %92 = load ptr, ptr %14, align 8
  %93 = load i64, ptr %15, align 8
  store ptr %92, ptr %6, align 8
  store i64 %93, ptr %7, align 8
  store i8 0, ptr %8, align 1
  %94 = load ptr, ptr %6, align 8
  %95 = load i64, ptr %7, align 8
  %96 = load i8, ptr %8, align 1
  %97 = trunc i8 %96 to i1
  store ptr %94, ptr %3, align 8
  store i64 %95, ptr %4, align 8
  %98 = zext i1 %97 to i8
  store i8 %98, ptr %5, align 1
  %99 = load ptr, ptr %3, align 8
  %100 = load ptr, ptr %99, align 8
  %101 = icmp ne ptr %100, null
  %102 = xor i1 %101, true
  br i1 %102, label %103, label %104

103:                                              ; preds = %79
  br label %117

104:                                              ; preds = %79
  %105 = load ptr, ptr %3, align 8
  %106 = load ptr, ptr %105, align 8
  %107 = getelementptr inbounds %struct._zend_string, ptr %106, i32 0, i32 2
  %108 = load i64, ptr %107, align 8
  %109 = load i64, ptr %4, align 8
  %110 = add i64 %109, %108
  store i64 %110, ptr %4, align 8
  %111 = load i64, ptr %4, align 8
  %112 = load ptr, ptr %3, align 8
  %113 = getelementptr inbounds %struct.smart_str, ptr %112, i32 0, i32 1
  %114 = load i64, ptr %113, align 8
  %115 = icmp uge i64 %111, %114
  br i1 %115, label %116, label %127

116:                                              ; preds = %104
  br label %117

117:                                              ; preds = %116, %103
  %118 = load i8, ptr %5, align 1
  %119 = trunc i8 %118 to i1
  br i1 %119, label %120, label %123

120:                                              ; preds = %117
  %121 = load ptr, ptr %3, align 8
  %122 = load i64, ptr %4, align 8
  call void @smart_str_realloc(ptr noundef %121, i64 noundef %122) #11
  br label %126

123:                                              ; preds = %117
  %124 = load ptr, ptr %3, align 8
  %125 = load i64, ptr %4, align 8
  call void @smart_str_erealloc(ptr noundef %124, i64 noundef %125) #11
  br label %126

126:                                              ; preds = %123, %120
  br label %127

127:                                              ; preds = %126, %104
  %128 = load i64, ptr %4, align 8
  store i64 %128, ptr %9, align 8
  %129 = load ptr, ptr %6, align 8
  %130 = load ptr, ptr %129, align 8
  %131 = getelementptr inbounds %struct._zend_string, ptr %130, i32 0, i32 3
  %132 = load ptr, ptr %6, align 8
  %133 = load ptr, ptr %132, align 8
  %134 = getelementptr inbounds %struct._zend_string, ptr %133, i32 0, i32 2
  %135 = load i64, ptr %134, align 8
  %136 = getelementptr inbounds i8, ptr %131, i64 %135
  store ptr %136, ptr %10, align 8
  %137 = load i64, ptr %9, align 8
  %138 = load ptr, ptr %6, align 8
  %139 = load ptr, ptr %138, align 8
  %140 = getelementptr inbounds %struct._zend_string, ptr %139, i32 0, i32 2
  store i64 %137, ptr %140, align 8
  %141 = load ptr, ptr %10, align 8
  store ptr %141, ptr %29, align 8
  %142 = load ptr, ptr %29, align 8
  store ptr %142, ptr %11, align 8
  store ptr @.str.83, ptr %12, align 8
  store i64 2, ptr %13, align 8
  %143 = load ptr, ptr %11, align 8
  %144 = load ptr, ptr %12, align 8
  %145 = load i64, ptr %13, align 8
  %146 = call ptr @mempcpy(ptr noundef %143, ptr noundef %144, i64 noundef %145) #11
  store ptr %146, ptr %29, align 8
  %147 = load ptr, ptr %29, align 8
  %148 = load ptr, ptr %27, align 8
  %149 = load i64, ptr %28, align 8
  call void @llvm.memcpy.p0.p0.i64(ptr align 1 %147, ptr align 1 %148, i64 %149, i1 false)
  %150 = load ptr, ptr %29, align 8
  %151 = load i64, ptr %28, align 8
  %152 = getelementptr inbounds i8, ptr %150, i64 %151
  store i8 59, ptr %152, align 1
  ret void
}