; Function Attrs: nounwind uwtable
define internal fastcc void @php_var_serialize_long(ptr noundef %0, i64 noundef %1) unnamed_addr #0 {
  %3 = alloca [32 x i8], align 16
  %4 = getelementptr inbounds i8, ptr %3, i64 31
  %5 = icmp slt i64 %1, 0
  br i1 %5, label %6, label %16

6:                                                ; preds = %2
  %7 = sub i64 0, %1
  store i8 0, ptr %4, align 1
  br label %8

8:                                                ; preds = %8, %6
  %.056 = phi i64 [ %7, %6 ], [ %13, %8 ]
  %.055 = phi ptr [ %4, %6 ], [ %12, %8 ]
  %9 = urem i64 %.056, 10
  %10 = trunc i64 %9 to i8
  %11 = or disjoint i8 %10, 48
  %12 = getelementptr inbounds i8, ptr %.055, i64 -1
  store i8 %11, ptr %12, align 1
  %13 = udiv i64 %.056, 10
  %.not62 = icmp ult i64 %.056, 10
  br i1 %.not62, label %14, label %8

14:                                               ; preds = %8
  %15 = getelementptr inbounds i8, ptr %.055, i64 -2
  store i8 45, ptr %15, align 1
  br label %.loopexit

16:                                               ; preds = %2
  store i8 0, ptr %4, align 1
  br label %17

17:                                               ; preds = %17, %16
  %.054 = phi i64 [ %1, %16 ], [ %22, %17 ]
  %.053 = phi ptr [ %4, %16 ], [ %21, %17 ]
  %18 = urem i64 %.054, 10
  %19 = trunc i64 %18 to i8
  %20 = or disjoint i8 %19, 48
  %21 = getelementptr inbounds i8, ptr %.053, i64 -1
  store i8 %20, ptr %21, align 1
  %22 = udiv i64 %.054, 10
  %.not = icmp ult i64 %.054, 10
  br i1 %.not, label %.loopexit, label %17

.loopexit:                                        ; preds = %17, %14
  %.057 = phi ptr [ %15, %14 ], [ %21, %17 ]
  %23 = ptrtoint ptr %4 to i64
  %24 = ptrtoint ptr %.057 to i64
  %25 = sub i64 %23, %24
  %26 = add i64 %25, 3
  %27 = load ptr, ptr %0, align 8
  %.not63 = icmp eq ptr %27, null
  br i1 %.not63, label %34, label %28

28:                                               ; preds = %.loopexit
  %29 = getelementptr inbounds i8, ptr %27, i64 16
  %30 = load i64, ptr %29, align 8
  %31 = add i64 %30, %26
  %32 = getelementptr inbounds i8, ptr %0, i64 8
  %33 = load i64, ptr %32, align 8
  %.not64 = icmp ult i64 %31, %33
  br i1 %.not64, label %35, label %34

34:                                               ; preds = %.loopexit, %28
  %.0 = phi i64 [ %26, %.loopexit ], [ %31, %28 ]
  call void @smart_str_erealloc(ptr noundef nonnull %0, i64 noundef %.0) #12
  %.pre = load ptr, ptr %0, align 8
  %.phi.trans.insert = getelementptr inbounds i8, ptr %.pre, i64 16
  %.pre65 = load i64, ptr %.phi.trans.insert, align 8
  br label %35

35:                                               ; preds = %34, %28
  %36 = phi i64 [ %.pre65, %34 ], [ %30, %28 ]
  %37 = phi ptr [ %.pre, %34 ], [ %27, %28 ]
  %.1 = phi i64 [ %.0, %34 ], [ %31, %28 ]
  %38 = getelementptr inbounds i8, ptr %37, i64 24
  %39 = getelementptr inbounds i8, ptr %37, i64 16
  %40 = getelementptr inbounds i8, ptr %38, i64 %36
  store i64 %.1, ptr %39, align 8
  store i16 14953, ptr %40, align 1
  %41 = getelementptr inbounds i8, ptr %40, i64 2
  call void @llvm.memcpy.p0.p0.i64(ptr nonnull align 1 %41, ptr nonnull align 1 %.057, i64 %25, i1 false)
  %42 = getelementptr inbounds i8, ptr %41, i64 %25
  store i8 59, ptr %42, align 1
  ret void
}